target datalayout = "e-m:e-p270:32:32-p271:32:32-p272:64:64-i64:64-i128:128-f80:128-n8:16:32:64-S128"
target triple = "x86_64-pc-linux-gnu"

@.str = private unnamed_addr constant [130 x i8] c"generated/home/dtcxzyw/WorkSpace/Projects/compilers/llvm-opt-benchmark/bench/lief/bench_build/mbed_src/library/ssl_tls13_server.c\00", align 1
@.str.108 = private unnamed_addr constant [46 x i8] c"mbedtls_ssl_tls13_compute_handshake_transform\00", align 1

; Function Attrs: nounwind uwtable
define internal i32 @ssl_tls13_finalize_server_hello(ptr noundef %0) #0 {
  %2 = alloca i32, align 4
  %3 = alloca ptr, align 8
  %4 = alloca i32, align 4
  %5 = alloca i32, align 4
  store ptr %0, ptr %3, align 8, !tbaa !3
  call void @llvm.lifetime.start.p0(i64 4, ptr %4) #10
  store i32 -110, ptr %4, align 4, !tbaa !8
  %6 = load ptr, ptr %3, align 8, !tbaa !3
  %7 = call i32 @mbedtls_ssl_tls13_compute_handshake_transform(ptr noundef %6)
  store i32 %7, ptr %4, align 4, !tbaa !8
  %8 = load i32, ptr %4, align 4, !tbaa !8
  %9 = icmp ne i32 %8, 0
  br i1 %9, label %10, label %14

10:                                               ; preds = %1
  %11 = load ptr, ptr %3, align 8, !tbaa !3
  %12 = load i32, ptr %4, align 4, !tbaa !8
  call void @mbedtls_debug_print_ret(ptr noundef %11, i32 noundef 1, ptr noundef @.str, i32 noundef 2407, ptr noundef @.str.108, i32 noundef %12)
  %13 = load i32, ptr %4, align 4, !tbaa !8
  store i32 %13, ptr %2, align 4
  store i32 1, ptr %5, align 4
  br label %16

14:                                               ; preds = %1
  %15 = load i32, ptr %4, align 4, !tbaa !8
  store i32 %15, ptr %2, align 4
  store i32 1, ptr %5, align 4
  br label %16

16:                                               ; preds = %14, %10
  call void @llvm.lifetime.end.p0(i64 4, ptr %4) #10
  %17 = load i32, ptr %2, align 4
  ret i32 %17
}