; Function Attrs: nounwind uwtable
define internal fastcc i32 @ssl_tls13_finalize_server_hello(ptr noundef %0) unnamed_addr #0 {
  %2 = tail call i32 @mbedtls_ssl_tls13_compute_handshake_transform(ptr noundef %0) #9
  %.not = icmp eq i32 %2, 0
  br i1 %.not, label %4, label %3

3:                                                ; preds = %1
  tail call void @mbedtls_debug_print_ret(ptr noundef %0, i32 noundef 1, ptr noundef nonnull @.str, i32 noundef 2407, ptr noundef nonnull @.str.108, i32 noundef %2) #9
  br label %4

4:                                                ; preds = %1, %3
  ret i32 %2
}